; Function Attrs: nounwind uwtable
define hidden void @zim_DOMElement_setIdAttributeNode(ptr nocapture noundef readonly %0, ptr nocapture noundef writeonly %1) local_unnamed_addr #0 {
  %3 = alloca ptr, align 8
  %4 = alloca i8, align 1
  %5 = getelementptr inbounds i8, ptr %0, i64 44
  %6 = load i32, ptr %5, align 4
  %7 = load ptr, ptr @dom_attr_class_entry, align 8
  %8 = call i32 (i32, ptr, ...) @zend_parse_parameters(i32 noundef %6, ptr noundef nonnull @.str.17, ptr noundef nonnull %3, ptr noundef %7, ptr noundef nonnull %4) #8
  %9 = icmp eq i32 %8, -1
  br i1 %9, label %10, label %13

10:                                               ; preds = %2
  %11 = load ptr, ptr getelementptr inbounds (%struct._zend_executor_globals, ptr @executor_globals, i64 0, i32 50), align 8
  %12 = icmp ne ptr %11, null
  call void @llvm.assume(i1 %12)
  br label %71

13:                                               ; preds = %2
  %14 = getelementptr inbounds i8, ptr %0, i64 32
  %15 = load ptr, ptr %14, align 8
  %16 = getelementptr inbounds i8, ptr %15, i64 -24
  %17 = load ptr, ptr %16, align 8
  %18 = icmp eq ptr %17, null
  br i1 %18, label %19, label %27

19:                                               ; preds = %13
  %20 = getelementptr inbounds i8, ptr %15, i64 16
  %21 = load ptr, ptr %20, align 8
  %22 = getelementptr inbounds i8, ptr %21, i64 8
  %23 = load ptr, ptr %22, align 8
  %24 = getelementptr inbounds i8, ptr %23, i64 24
  call void (ptr, ptr, ...) @zend_throw_error(ptr noundef null, ptr noundef nonnull @.str.5, ptr noundef nonnull %24) #8
  %25 = load ptr, ptr getelementptr inbounds (%struct._zend_executor_globals, ptr @executor_globals, i64 0, i32 50), align 8
  %26 = icmp ne ptr %25, null
  call void @llvm.assume(i1 %26)
  br label %71

27:                                               ; preds = %13
  %28 = load ptr, ptr %3, align 8
  %29 = load ptr, ptr %28, align 8
  %30 = getelementptr inbounds i8, ptr %29, i64 -24
  %31 = load ptr, ptr %30, align 8
  %32 = icmp eq ptr %31, null
  br i1 %32, label %33, label %41

33:                                               ; preds = %27
  %34 = getelementptr inbounds i8, ptr %29, i64 16
  %35 = load ptr, ptr %34, align 8
  %36 = getelementptr inbounds i8, ptr %35, i64 8
  %37 = load ptr, ptr %36, align 8
  %38 = getelementptr inbounds i8, ptr %37, i64 24
  call void (ptr, ptr, ...) @zend_throw_error(ptr noundef null, ptr noundef nonnull @.str.5, ptr noundef nonnull %38) #8
  %39 = load ptr, ptr getelementptr inbounds (%struct._zend_executor_globals, ptr @executor_globals, i64 0, i32 50), align 8
  %40 = icmp ne ptr %39, null
  call void @llvm.assume(i1 %40)
  br label %71

41:                                               ; preds = %27
  %42 = load ptr, ptr %17, align 8
  %43 = load ptr, ptr %31, align 8
  %44 = getelementptr inbounds i8, ptr %43, i64 40
  %45 = load ptr, ptr %44, align 8
  %.not = icmp eq ptr %45, %42
  br i1 %.not, label %50, label %46

46:                                               ; preds = %41
  %47 = getelementptr inbounds i8, ptr %15, i64 -16
  %48 = load ptr, ptr %47, align 8
  %49 = call i32 @dom_get_strict_error(ptr noundef %48) #8
  call void @php_dom_throw_error(i32 noundef 8, i32 noundef %49) #8
  br label %php_set_attribute_id.exit

50:                                               ; preds = %41
  %51 = load i8, ptr %4, align 1
  %52 = and i8 %51, 1
  %.not15 = icmp eq i8 %52, 0
  %53 = getelementptr inbounds i8, ptr %43, i64 80
  %54 = load i32, ptr %53, align 8
  %.not.i = icmp eq i32 %54, 2
  br i1 %.not15, label %.critedge.i, label %55

55:                                               ; preds = %50
  br i1 %.not.i, label %php_set_attribute_id.exit, label %56

56:                                               ; preds = %55
  %57 = getelementptr inbounds i8, ptr %43, i64 64
  %58 = load ptr, ptr %57, align 8
  %59 = getelementptr inbounds i8, ptr %43, i64 24
  %60 = load ptr, ptr %59, align 8
  %61 = call ptr @xmlNodeListGetString(ptr noundef %58, ptr noundef %60, i32 noundef 1) #8
  %.not13.i = icmp eq ptr %61, null
  br i1 %.not13.i, label %php_set_attribute_id.exit, label %62

62:                                               ; preds = %56
  %63 = load ptr, ptr %57, align 8
  %64 = call ptr @xmlAddID(ptr noundef null, ptr noundef %63, ptr noundef nonnull %61, ptr noundef nonnull %43) #8
  %65 = load ptr, ptr @xmlFree, align 8
  call void %65(ptr noundef nonnull %61) #8
  br label %php_set_attribute_id.exit

.critedge.i:                                      ; preds = %50
  br i1 %.not.i, label %66, label %php_set_attribute_id.exit

66:                                               ; preds = %.critedge.i
  %67 = getelementptr inbounds i8, ptr %43, i64 64
  %68 = load ptr, ptr %67, align 8
  %69 = call i32 @xmlRemoveID(ptr noundef %68, ptr noundef nonnull %43) #8
  store i32 0, ptr %53, align 8
  br label %php_set_attribute_id.exit

php_set_attribute_id.exit:                        ; preds = %66, %.critedge.i, %62, %56, %55, %46
  %70 = getelementptr inbounds i8, ptr %1, i64 8
  store i32 1, ptr %70, align 8
  br label %71

71:                                               ; preds = %php_set_attribute_id.exit, %33, %19, %10
  ret void
}